; Function Attrs: nounwind uwtable
define internal void @fullsize_downsample(ptr nocapture noundef readonly %0, ptr nocapture noundef readonly %1, ptr noundef %2, ptr noundef %3) #0 {
  %5 = getelementptr inbounds i8, ptr %0, i64 432
  %6 = load ptr, ptr %5, align 8
  %7 = getelementptr inbounds i8, ptr %6, i64 32
  %8 = load i32, ptr %7, align 8
  %.not = icmp eq i32 %8, 0
  %9 = getelementptr inbounds i8, ptr %0, i64 316
  %10 = load i32, ptr %9, align 4
  %11 = getelementptr inbounds i8, ptr %0, i64 48
  %12 = load i32, ptr %11, align 8
  tail call void @jcopy_sample_rows(ptr noundef %2, i32 noundef 0, ptr noundef %3, i32 noundef 0, i32 noundef %10, i32 noundef %12) #5
  %13 = load i32, ptr %9, align 4
  %14 = load i32, ptr %11, align 8
  %15 = getelementptr inbounds i8, ptr %1, i64 28
  %16 = load i32, ptr %15, align 4
  %17 = select i1 %.not, i32 3, i32 0
  %18 = shl i32 %16, %17
  %19 = sub i32 %18, %14
  %20 = icmp sgt i32 %19, 0
  %21 = icmp sgt i32 %13, 0
  %or.cond.i = and i1 %21, %20
  br i1 %or.cond.i, label %.lr.ph20.i, label %expand_right_edge.exit

.lr.ph20.i:                                       ; preds = %4
  %22 = zext i32 %14 to i64
  %23 = xor i32 %14, -1
  %24 = add i32 %18, %23
  %25 = zext i32 %24 to i64
  %26 = add nuw nsw i64 %25, 1
  %wide.trip.count.i = zext nneg i32 %13 to i64
  br label %.lr.ph.us.i

.lr.ph.us.i:                                      ; preds = %.lr.ph.us.i, %.lr.ph20.i
  %indvars.iv.i = phi i64 [ 0, %.lr.ph20.i ], [ %indvars.iv.next.i, %.lr.ph.us.i ]
  %27 = getelementptr inbounds ptr, ptr %3, i64 %indvars.iv.i
  %28 = load ptr, ptr %27, align 8
  %29 = getelementptr inbounds i8, ptr %28, i64 %22
  %30 = getelementptr inbounds i8, ptr %29, i64 -1
  %31 = load i8, ptr %30, align 1
  tail call void @llvm.memset.p0.i64(ptr noundef nonnull align 1 dereferenceable(1) %29, i8 %31, i64 %26, i1 false)
  %indvars.iv.next.i = add nuw nsw i64 %indvars.iv.i, 1
  %exitcond.not.i = icmp eq i64 %indvars.iv.next.i, %wide.trip.count.i
  br i1 %exitcond.not.i, label %expand_right_edge.exit, label %.lr.ph.us.i, !llvm.loop !7

expand_right_edge.exit:                           ; preds = %.lr.ph.us.i, %4
  ret void
}